; Function Attrs: nounwind uwtable
define internal range(i32 0, 2) i32 @aead_chacha20_poly1305_open(ptr noundef readonly captures(none) %0, ptr noundef %1, ptr noundef writeonly captures(none) %2, i64 %3, ptr noundef %4, i64 noundef %5, ptr noundef %6, i64 noundef %7, ptr noundef %8, i64 noundef %9) #1 {
  %.not = icmp eq i64 %5, 12
  br i1 %.not, label %12, label %11

11:                                               ; preds = %10
  tail call void @ERR_put_error(i32 noundef 30, i32 noundef 0, i32 noundef 121, ptr noundef nonnull @.str, i32 noundef 222) #8
  br label %15

12:                                               ; preds = %10
  %13 = getelementptr i8, ptr %0, i64 8
  %.val = load ptr, ptr %13, align 8, !tbaa !10
  %14 = tail call fastcc i32 @open_impl(ptr noundef nonnull @poly1305_update, ptr %.val, ptr noundef %1, ptr noundef %2, ptr noundef %4, ptr noundef %6, i64 noundef %7, ptr noundef %8, i64 noundef %9)
  br label %15

15:                                               ; preds = %12, %11
  %.0 = phi i32 [ 0, %11 ], [ %14, %12 ]
  ret i32 %.0
}